target datalayout = "e-m:e-p270:32:32-p271:32:32-p272:64:64-i64:64-i128:128-f80:128-n8:16:32:64-S128"
target triple = "x86_64-pc-linux-gnu"

%struct.__storeu_ps = type { <4 x float> }
%struct.__loadu_si128 = type { <2 x i64> }

; Function Attrs: alwaysinline nounwind uwtable
define available_externally void @_mm_storeu_ps(ptr noundef %0, <4 x float> noundef %1) #2 {
  %3 = alloca ptr, align 8
  %4 = alloca <4 x float>, align 16
  store ptr %0, ptr %3, align 8, !tbaa !21
  store <4 x float> %1, ptr %4, align 16, !tbaa !12
  %5 = load <4 x float>, ptr %4, align 16, !tbaa !12
  %6 = load ptr, ptr %3, align 8, !tbaa !21
  %7 = getelementptr inbounds nuw %struct.__storeu_ps, ptr %6, i32 0, i32 0
  store <4 x float> %5, ptr %7, align 1, !tbaa !12
  ret void
}

; Function Attrs: alwaysinline nounwind uwtable
define available_externally <4 x float> @_mm_castsi128_ps(<2 x i64> noundef %0) #2 {
  %2 = alloca <2 x i64>, align 16
  store <2 x i64> %0, ptr %2, align 16, !tbaa !12
  %3 = load <2 x i64>, ptr %2, align 16, !tbaa !12
  %4 = bitcast <2 x i64> %3 to <4 x float>
  ret <4 x float> %4
}

; Function Attrs: alwaysinline nounwind uwtable
define available_externally <2 x i64> @_mm_castps_si128(<4 x float> noundef %0) #2 {
  %2 = alloca <4 x float>, align 16
  store <4 x float> %0, ptr %2, align 16, !tbaa !12
  %3 = load <4 x float>, ptr %2, align 16, !tbaa !12
  %4 = bitcast <4 x float> %3 to <2 x i64>
  ret <2 x i64> %4
}

; Function Attrs: alwaysinline nounwind uwtable
define available_externally <4 x float> @_mm_mul_ps(<4 x float> noundef %0, <4 x float> noundef %1) #2 {
  %3 = alloca <4 x float>, align 16
  %4 = alloca <4 x float>, align 16
  store <4 x float> %0, ptr %3, align 16, !tbaa !12
  store <4 x float> %1, ptr %4, align 16, !tbaa !12
  %5 = load <4 x float>, ptr %3, align 16, !tbaa !12
  %6 = load <4 x float>, ptr %4, align 16, !tbaa !12
  %7 = fmul <4 x float> %5, %6
  ret <4 x float> %7
}

; Function Attrs: alwaysinline nounwind uwtable
define available_externally <4 x float> @_mm_cvtepi32_ps(<2 x i64> noundef %0) #2 {
  %2 = alloca <2 x i64>, align 16
  store <2 x i64> %0, ptr %2, align 16, !tbaa !12
  %3 = load <2 x i64>, ptr %2, align 16, !tbaa !12
  %4 = bitcast <2 x i64> %3 to <4 x i32>
  %5 = sitofp <4 x i32> %4 to <4 x float>
  ret <4 x float> %5
}

; Function Attrs: alwaysinline nounwind uwtable
define available_externally <2 x i64> @_mm_unpackhi_epi16(<2 x i64> noundef %0, <2 x i64> noundef %1) #2 {
  %3 = alloca <2 x i64>, align 16
  %4 = alloca <2 x i64>, align 16
  store <2 x i64> %0, ptr %3, align 16, !tbaa !12
  store <2 x i64> %1, ptr %4, align 16, !tbaa !12
  %5 = load <2 x i64>, ptr %3, align 16, !tbaa !12
  %6 = bitcast <2 x i64> %5 to <8 x i16>
  %7 = load <2 x i64>, ptr %4, align 16, !tbaa !12
  %8 = bitcast <2 x i64> %7 to <8 x i16>
  %9 = shufflevector <8 x i16> %6, <8 x i16> %8, <8 x i32> <i32 4, i32 12, i32 5, i32 13, i32 6, i32 14, i32 7, i32 15>
  %10 = bitcast <8 x i16> %9 to <2 x i64>
  ret <2 x i64> %10
}

; Function Attrs: alwaysinline nounwind uwtable
define available_externally <2 x i64> @_mm_unpacklo_epi16(<2 x i64> noundef %0, <2 x i64> noundef %1) #2 {
  %3 = alloca <2 x i64>, align 16
  %4 = alloca <2 x i64>, align 16
  store <2 x i64> %0, ptr %3, align 16, !tbaa !12
  store <2 x i64> %1, ptr %4, align 16, !tbaa !12
  %5 = load <2 x i64>, ptr %3, align 16, !tbaa !12
  %6 = bitcast <2 x i64> %5 to <8 x i16>
  %7 = load <2 x i64>, ptr %4, align 16, !tbaa !12
  %8 = bitcast <2 x i64> %7 to <8 x i16>
  %9 = shufflevector <8 x i16> %6, <8 x i16> %8, <8 x i32> <i32 0, i32 8, i32 1, i32 9, i32 2, i32 10, i32 3, i32 11>
  %10 = bitcast <8 x i16> %9 to <2 x i64>
  ret <2 x i64> %10
}

; Function Attrs: alwaysinline nounwind uwtable
define available_externally <2 x i64> @_mm_unpackhi_epi8(<2 x i64> noundef %0, <2 x i64> noundef %1) #2 {
  %3 = alloca <2 x i64>, align 16
  %4 = alloca <2 x i64>, align 16
  store <2 x i64> %0, ptr %3, align 16, !tbaa !12
  store <2 x i64> %1, ptr %4, align 16, !tbaa !12
  %5 = load <2 x i64>, ptr %3, align 16, !tbaa !12
  %6 = bitcast <2 x i64> %5 to <16 x i8>
  %7 = load <2 x i64>, ptr %4, align 16, !tbaa !12
  %8 = bitcast <2 x i64> %7 to <16 x i8>
  %9 = shufflevector <16 x i8> %6, <16 x i8> %8, <16 x i32> <i32 8, i32 24, i32 9, i32 25, i32 10, i32 26, i32 11, i32 27, i32 12, i32 28, i32 13, i32 29, i32 14, i32 30, i32 15, i32 31>
  %10 = bitcast <16 x i8> %9 to <2 x i64>
  ret <2 x i64> %10
}

; Function Attrs: alwaysinline nounwind uwtable
define available_externally <2 x i64> @_mm_unpacklo_epi8(<2 x i64> noundef %0, <2 x i64> noundef %1) #2 {
  %3 = alloca <2 x i64>, align 16
  %4 = alloca <2 x i64>, align 16
  store <2 x i64> %0, ptr %3, align 16, !tbaa !12
  store <2 x i64> %1, ptr %4, align 16, !tbaa !12
  %5 = load <2 x i64>, ptr %3, align 16, !tbaa !12
  %6 = bitcast <2 x i64> %5 to <16 x i8>
  %7 = load <2 x i64>, ptr %4, align 16, !tbaa !12
  %8 = bitcast <2 x i64> %7 to <16 x i8>
  %9 = shufflevector <16 x i8> %6, <16 x i8> %8, <16 x i32> <i32 0, i32 16, i32 1, i32 17, i32 2, i32 18, i32 3, i32 19, i32 4, i32 20, i32 5, i32 21, i32 6, i32 22, i32 7, i32 23>
  %10 = bitcast <16 x i8> %9 to <2 x i64>
  ret <2 x i64> %10
}

; Function Attrs: alwaysinline nounwind uwtable
define available_externally <2 x i64> @_mm_setzero_si128() #2 {
  %1 = alloca <2 x i64>, align 16
  store <2 x i64> zeroinitializer, ptr %1, align 16, !tbaa !12
  %2 = load <2 x i64>, ptr %1, align 16, !tbaa !12
  ret <2 x i64> %2
}

; Function Attrs: alwaysinline nounwind uwtable
define available_externally <2 x i64> @_mm_loadu_si128(ptr noundef %0) #2 {
  %2 = alloca ptr, align 8
  store ptr %0, ptr %2, align 8, !tbaa !3
  %3 = load ptr, ptr %2, align 8, !tbaa !3
  %4 = getelementptr inbounds nuw %struct.__loadu_si128, ptr %3, i32 0, i32 0
  %5 = load <2 x i64>, ptr %4, align 1, !tbaa !12
  ret <2 x i64> %5
}

; Function Attrs: nounwind uwtable
define void @stbir__decode_uint8_linear_scaled_BGRA(ptr noundef %0, i32 noundef %1, ptr noundef %2) #0 {
  %4 = alloca ptr, align 8
  %5 = alloca i32, align 4
  %6 = alloca ptr, align 8
  %7 = alloca ptr, align 8
  %8 = alloca ptr, align 8
  %9 = alloca ptr, align 8
  %10 = alloca ptr, align 8
  %11 = alloca <2 x i64>, align 16
  %12 = alloca <2 x i64>, align 16
  %13 = alloca <2 x i64>, align 16
  %14 = alloca <2 x i64>, align 16
  %15 = alloca <2 x i64>, align 16
  %16 = alloca <4 x float>, align 16
  %17 = alloca <4 x float>, align 16
  %18 = alloca <4 x float>, align 16
  %19 = alloca <4 x float>, align 16
  %20 = alloca <2 x i64>, align 16
  %21 = alloca i32, align 4
  store ptr %0, ptr %4, align 8, !tbaa !21
  store i32 %1, ptr %5, align 4, !tbaa !26
  store ptr %2, ptr %6, align 8, !tbaa !3
  call void @llvm.lifetime.start.p0(i64 8, ptr %7) #12
  %22 = load ptr, ptr %4, align 8, !tbaa !21
  store ptr %22, ptr %7, align 8, !tbaa !21
  call void @llvm.lifetime.start.p0(i64 8, ptr %8) #12
  %23 = load ptr, ptr %7, align 8, !tbaa !21
  %24 = load i32, ptr %5, align 4, !tbaa !26
  %25 = sext i32 %24 to i64
  %26 = getelementptr inbounds float, ptr %23, i64 %25
  store ptr %26, ptr %8, align 8, !tbaa !21
  call void @llvm.lifetime.start.p0(i64 8, ptr %9) #12
  %27 = load ptr, ptr %6, align 8, !tbaa !3
  store ptr %27, ptr %9, align 8, !tbaa !9
  call void @llvm.lifetime.start.p0(i64 8, ptr %10) #12
  %28 = load ptr, ptr %9, align 8, !tbaa !9
  %29 = load i32, ptr %5, align 4, !tbaa !26
  %30 = sext i32 %29 to i64
  %31 = getelementptr inbounds i8, ptr %28, i64 %30
  %32 = getelementptr inbounds i8, ptr %31, i64 -16
  store ptr %32, ptr %10, align 8, !tbaa !9
  %33 = load i32, ptr %5, align 4, !tbaa !26
  %34 = icmp sge i32 %33, 16
  br i1 %34, label %35, label %134

35:                                               ; preds = %3
  %36 = load ptr, ptr %8, align 8, !tbaa !21
  %37 = getelementptr inbounds float, ptr %36, i64 -16
  store ptr %37, ptr %8, align 8, !tbaa !21
  br label %38

38:                                               ; preds = %132, %130, %35
  call void @llvm.lifetime.start.p0(i64 16, ptr %11) #12
  call void @llvm.lifetime.start.p0(i64 16, ptr %12) #12
  call void @llvm.lifetime.start.p0(i64 16, ptr %13) #12
  call void @llvm.lifetime.start.p0(i64 16, ptr %14) #12
  call void @llvm.lifetime.start.p0(i64 16, ptr %15) #12
  call void @llvm.lifetime.start.p0(i64 16, ptr %16) #12
  call void @llvm.lifetime.start.p0(i64 16, ptr %17) #12
  call void @llvm.lifetime.start.p0(i64 16, ptr %18) #12
  call void @llvm.lifetime.start.p0(i64 16, ptr %19) #12
  %39 = load ptr, ptr %7, align 8, !tbaa !21
  call void asm sideeffect "", "r,~{dirflag},~{fpsr},~{flags}"(ptr %39) #12, !srcloc !234
  %40 = load ptr, ptr %9, align 8, !tbaa !9
  %41 = call <2 x i64> @_mm_loadu_si128(ptr noundef %40)
  store <2 x i64> %41, ptr %11, align 16, !tbaa !12
  call void @llvm.lifetime.start.p0(i64 16, ptr %20) #12
  %42 = call <2 x i64> @_mm_setzero_si128()
  store <2 x i64> %42, ptr %20, align 16, !tbaa !12
  %43 = load <2 x i64>, ptr %11, align 16, !tbaa !12
  %44 = load <2 x i64>, ptr %20, align 16, !tbaa !12
  %45 = call <2 x i64> @_mm_unpacklo_epi8(<2 x i64> noundef %43, <2 x i64> noundef %44)
  store <2 x i64> %45, ptr %14, align 16, !tbaa !12
  %46 = load <2 x i64>, ptr %11, align 16, !tbaa !12
  %47 = load <2 x i64>, ptr %20, align 16, !tbaa !12
  %48 = call <2 x i64> @_mm_unpackhi_epi8(<2 x i64> noundef %46, <2 x i64> noundef %47)
  store <2 x i64> %48, ptr %15, align 16, !tbaa !12
  %49 = load <2 x i64>, ptr %14, align 16, !tbaa !12
  %50 = load <2 x i64>, ptr %20, align 16, !tbaa !12
  %51 = call <2 x i64> @_mm_unpacklo_epi16(<2 x i64> noundef %49, <2 x i64> noundef %50)
  store <2 x i64> %51, ptr %12, align 16, !tbaa !12
  %52 = load <2 x i64>, ptr %14, align 16, !tbaa !12
  %53 = load <2 x i64>, ptr %20, align 16, !tbaa !12
  %54 = call <2 x i64> @_mm_unpackhi_epi16(<2 x i64> noundef %52, <2 x i64> noundef %53)
  store <2 x i64> %54, ptr %13, align 16, !tbaa !12
  %55 = load <2 x i64>, ptr %15, align 16, !tbaa !12
  %56 = load <2 x i64>, ptr %20, align 16, !tbaa !12
  %57 = call <2 x i64> @_mm_unpacklo_epi16(<2 x i64> noundef %55, <2 x i64> noundef %56)
  store <2 x i64> %57, ptr %14, align 16, !tbaa !12
  %58 = load <2 x i64>, ptr %15, align 16, !tbaa !12
  %59 = load <2 x i64>, ptr %20, align 16, !tbaa !12
  %60 = call <2 x i64> @_mm_unpackhi_epi16(<2 x i64> noundef %58, <2 x i64> noundef %59)
  store <2 x i64> %60, ptr %15, align 16, !tbaa !12
  call void @llvm.lifetime.end.p0(i64 16, ptr %20) #12
  %61 = load <2 x i64>, ptr %12, align 16, !tbaa !12
  %62 = call <4 x float> @_mm_cvtepi32_ps(<2 x i64> noundef %61)
  store <4 x float> %62, ptr %16, align 16, !tbaa !12
  %63 = load <2 x i64>, ptr %13, align 16, !tbaa !12
  %64 = call <4 x float> @_mm_cvtepi32_ps(<2 x i64> noundef %63)
  store <4 x float> %64, ptr %17, align 16, !tbaa !12
  %65 = load <2 x i64>, ptr %14, align 16, !tbaa !12
  %66 = call <4 x float> @_mm_cvtepi32_ps(<2 x i64> noundef %65)
  store <4 x float> %66, ptr %18, align 16, !tbaa !12
  %67 = load <2 x i64>, ptr %15, align 16, !tbaa !12
  %68 = call <4 x float> @_mm_cvtepi32_ps(<2 x i64> noundef %67)
  store <4 x float> %68, ptr %19, align 16, !tbaa !12
  %69 = load <4 x float>, ptr %16, align 16, !tbaa !12
  %70 = call <4 x float> @_mm_mul_ps(<4 x float> noundef %69, <4 x float> noundef splat (float 0x3F70101020000000))
  store <4 x float> %70, ptr %16, align 16, !tbaa !12
  %71 = load <4 x float>, ptr %17, align 16, !tbaa !12
  %72 = call <4 x float> @_mm_mul_ps(<4 x float> noundef %71, <4 x float> noundef splat (float 0x3F70101020000000))
  store <4 x float> %72, ptr %17, align 16, !tbaa !12
  %73 = load <4 x float>, ptr %18, align 16, !tbaa !12
  %74 = call <4 x float> @_mm_mul_ps(<4 x float> noundef %73, <4 x float> noundef splat (float 0x3F70101020000000))
  store <4 x float> %74, ptr %18, align 16, !tbaa !12
  %75 = load <4 x float>, ptr %19, align 16, !tbaa !12
  %76 = call <4 x float> @_mm_mul_ps(<4 x float> noundef %75, <4 x float> noundef splat (float 0x3F70101020000000))
  store <4 x float> %76, ptr %19, align 16, !tbaa !12
  %77 = load <4 x float>, ptr %16, align 16, !tbaa !12
  %78 = call <2 x i64> @_mm_castps_si128(<4 x float> noundef %77)
  %79 = bitcast <2 x i64> %78 to <4 x i32>
  %80 = shufflevector <4 x i32> %79, <4 x i32> poison, <4 x i32> <i32 2, i32 1, i32 0, i32 3>
  %81 = bitcast <4 x i32> %80 to <2 x i64>
  %82 = call <4 x float> @_mm_castsi128_ps(<2 x i64> noundef %81)
  store <4 x float> %82, ptr %16, align 16, !tbaa !12
  %83 = load <4 x float>, ptr %17, align 16, !tbaa !12
  %84 = call <2 x i64> @_mm_castps_si128(<4 x float> noundef %83)
  %85 = bitcast <2 x i64> %84 to <4 x i32>
  %86 = shufflevector <4 x i32> %85, <4 x i32> poison, <4 x i32> <i32 2, i32 1, i32 0, i32 3>
  %87 = bitcast <4 x i32> %86 to <2 x i64>
  %88 = call <4 x float> @_mm_castsi128_ps(<2 x i64> noundef %87)
  store <4 x float> %88, ptr %17, align 16, !tbaa !12
  %89 = load <4 x float>, ptr %18, align 16, !tbaa !12
  %90 = call <2 x i64> @_mm_castps_si128(<4 x float> noundef %89)
  %91 = bitcast <2 x i64> %90 to <4 x i32>
  %92 = shufflevector <4 x i32> %91, <4 x i32> poison, <4 x i32> <i32 2, i32 1, i32 0, i32 3>
  %93 = bitcast <4 x i32> %92 to <2 x i64>
  %94 = call <4 x float> @_mm_castsi128_ps(<2 x i64> noundef %93)
  store <4 x float> %94, ptr %18, align 16, !tbaa !12
  %95 = load <4 x float>, ptr %19, align 16, !tbaa !12
  %96 = call <2 x i64> @_mm_castps_si128(<4 x float> noundef %95)
  %97 = bitcast <2 x i64> %96 to <4 x i32>
  %98 = shufflevector <4 x i32> %97, <4 x i32> poison, <4 x i32> <i32 2, i32 1, i32 0, i32 3>
  %99 = bitcast <4 x i32> %98 to <2 x i64>
  %100 = call <4 x float> @_mm_castsi128_ps(<2 x i64> noundef %99)
  store <4 x float> %100, ptr %19, align 16, !tbaa !12
  %101 = load ptr, ptr %7, align 8, !tbaa !21
  %102 = getelementptr inbounds float, ptr %101, i64 0
  %103 = load <4 x float>, ptr %16, align 16, !tbaa !12
  call void @_mm_storeu_ps(ptr noundef %102, <4 x float> noundef %103)
  %104 = load ptr, ptr %7, align 8, !tbaa !21
  %105 = getelementptr inbounds float, ptr %104, i64 4
  %106 = load <4 x float>, ptr %17, align 16, !tbaa !12
  call void @_mm_storeu_ps(ptr noundef %105, <4 x float> noundef %106)
  %107 = load ptr, ptr %7, align 8, !tbaa !21
  %108 = getelementptr inbounds float, ptr %107, i64 8
  %109 = load <4 x float>, ptr %18, align 16, !tbaa !12
  call void @_mm_storeu_ps(ptr noundef %108, <4 x float> noundef %109)
  %110 = load ptr, ptr %7, align 8, !tbaa !21
  %111 = getelementptr inbounds float, ptr %110, i64 12
  %112 = load <4 x float>, ptr %19, align 16, !tbaa !12
  call void @_mm_storeu_ps(ptr noundef %111, <4 x float> noundef %112)
  %113 = load ptr, ptr %7, align 8, !tbaa !21
  %114 = getelementptr inbounds float, ptr %113, i64 16
  store ptr %114, ptr %7, align 8, !tbaa !21
  %115 = load ptr, ptr %9, align 8, !tbaa !9
  %116 = getelementptr inbounds i8, ptr %115, i64 16
  store ptr %116, ptr %9, align 8, !tbaa !9
  %117 = load ptr, ptr %7, align 8, !tbaa !21
  %118 = load ptr, ptr %8, align 8, !tbaa !21
  %119 = icmp ule ptr %117, %118
  br i1 %119, label %120, label %121

120:                                              ; preds = %38
  store i32 3, ptr %21, align 4
  br label %130, !llvm.loop !235

121:                                              ; preds = %38
  %122 = load ptr, ptr %7, align 8, !tbaa !21
  %123 = load ptr, ptr %8, align 8, !tbaa !21
  %124 = getelementptr inbounds float, ptr %123, i64 16
  %125 = icmp eq ptr %122, %124
  br i1 %125, label %126, label %127

126:                                              ; preds = %121
  store i32 2, ptr %21, align 4
  br label %130

127:                                              ; preds = %121
  %128 = load ptr, ptr %8, align 8, !tbaa !21
  store ptr %128, ptr %7, align 8, !tbaa !21
  %129 = load ptr, ptr %10, align 8, !tbaa !9
  store ptr %129, ptr %9, align 8, !tbaa !9
  store i32 0, ptr %21, align 4
  br label %130

130:                                              ; preds = %127, %126, %120
  call void @llvm.lifetime.end.p0(i64 16, ptr %19) #12
  call void @llvm.lifetime.end.p0(i64 16, ptr %18) #12
  call void @llvm.lifetime.end.p0(i64 16, ptr %17) #12
  call void @llvm.lifetime.end.p0(i64 16, ptr %16) #12
  call void @llvm.lifetime.end.p0(i64 16, ptr %15) #12
  call void @llvm.lifetime.end.p0(i64 16, ptr %14) #12
  call void @llvm.lifetime.end.p0(i64 16, ptr %13) #12
  call void @llvm.lifetime.end.p0(i64 16, ptr %12) #12
  call void @llvm.lifetime.end.p0(i64 16, ptr %11) #12
  %131 = load i32, ptr %21, align 4
  switch i32 %131, label %181 [
    i32 0, label %132
    i32 3, label %38
    i32 2, label %133
  ]

132:                                              ; preds = %130
  br label %38, !llvm.loop !235

133:                                              ; preds = %130
  store i32 1, ptr %21, align 4
  br label %178

134:                                              ; preds = %3
  %135 = load ptr, ptr %7, align 8, !tbaa !21
  %136 = getelementptr inbounds float, ptr %135, i64 4
  store ptr %136, ptr %7, align 8, !tbaa !21
  br label %137

137:                                              ; preds = %141, %134
  %138 = load ptr, ptr %7, align 8, !tbaa !21
  %139 = load ptr, ptr %8, align 8, !tbaa !21
  %140 = icmp ule ptr %138, %139
  br i1 %140, label %141, label %175

141:                                              ; preds = %137
  %142 = load ptr, ptr %7, align 8, !tbaa !21
  call void asm sideeffect "", "r,~{dirflag},~{fpsr},~{flags}"(ptr %142) #12, !srcloc !236
  %143 = load ptr, ptr %9, align 8, !tbaa !9
  %144 = getelementptr inbounds i8, ptr %143, i64 2
  %145 = load i8, ptr %144, align 1, !tbaa !12
  %146 = uitofp i8 %145 to float
  %147 = fmul float %146, 0x3F70101020000000
  %148 = load ptr, ptr %7, align 8, !tbaa !21
  %149 = getelementptr inbounds float, ptr %148, i64 -4
  store float %147, ptr %149, align 4, !tbaa !29
  %150 = load ptr, ptr %9, align 8, !tbaa !9
  %151 = getelementptr inbounds i8, ptr %150, i64 1
  %152 = load i8, ptr %151, align 1, !tbaa !12
  %153 = uitofp i8 %152 to float
  %154 = fmul float %153, 0x3F70101020000000
  %155 = load ptr, ptr %7, align 8, !tbaa !21
  %156 = getelementptr inbounds float, ptr %155, i64 -3
  store float %154, ptr %156, align 4, !tbaa !29
  %157 = load ptr, ptr %9, align 8, !tbaa !9
  %158 = getelementptr inbounds i8, ptr %157, i64 0
  %159 = load i8, ptr %158, align 1, !tbaa !12
  %160 = uitofp i8 %159 to float
  %161 = fmul float %160, 0x3F70101020000000
  %162 = load ptr, ptr %7, align 8, !tbaa !21
  %163 = getelementptr inbounds float, ptr %162, i64 -2
  store float %161, ptr %163, align 4, !tbaa !29
  %164 = load ptr, ptr %9, align 8, !tbaa !9
  %165 = getelementptr inbounds i8, ptr %164, i64 3
  %166 = load i8, ptr %165, align 1, !tbaa !12
  %167 = uitofp i8 %166 to float
  %168 = fmul float %167, 0x3F70101020000000
  %169 = load ptr, ptr %7, align 8, !tbaa !21
  %170 = getelementptr inbounds float, ptr %169, i64 -1
  store float %168, ptr %170, align 4, !tbaa !29
  %171 = load ptr, ptr %7, align 8, !tbaa !21
  %172 = getelementptr inbounds float, ptr %171, i64 4
  store ptr %172, ptr %7, align 8, !tbaa !21
  %173 = load ptr, ptr %9, align 8, !tbaa !9
  %174 = getelementptr inbounds i8, ptr %173, i64 4
  store ptr %174, ptr %9, align 8, !tbaa !9
  br label %137, !llvm.loop !237

175:                                              ; preds = %137
  %176 = load ptr, ptr %7, align 8, !tbaa !21
  %177 = getelementptr inbounds float, ptr %176, i64 -4
  store ptr %177, ptr %7, align 8, !tbaa !21
  store i32 0, ptr %21, align 4
  br label %178

178:                                              ; preds = %175, %133
  call void @llvm.lifetime.end.p0(i64 8, ptr %10) #12
  call void @llvm.lifetime.end.p0(i64 8, ptr %9) #12
  call void @llvm.lifetime.end.p0(i64 8, ptr %8) #12
  call void @llvm.lifetime.end.p0(i64 8, ptr %7) #12
  %179 = load i32, ptr %21, align 4
  switch i32 %179, label %181 [
    i32 0, label %180
    i32 1, label %180
  ]

180:                                              ; preds = %178, %178
  ret void

181:                                              ; preds = %178, %130
  unreachable
}