; Function Attrs: nounwind uwtable
define void @stbir__decode_uint8_linear_scaled_BGRA(ptr noundef %0, i32 noundef %1, ptr noundef readonly captures(none) %2) #0 {
  %4 = sext i32 %1 to i64
  %.idx = shl nsw i64 %4, 2
  %5 = getelementptr inbounds i8, ptr %0, i64 %.idx
  %6 = getelementptr inbounds i8, ptr %2, i64 %4
  %7 = getelementptr inbounds i8, ptr %6, i64 -16
  %8 = icmp sgt i32 %1, 15
  br i1 %8, label %9, label %.preheader

.preheader:                                       ; preds = %3
  %.not77 = icmp slt i32 %1, 4
  br i1 %.not77, label %.loopexit, label %.lr.ph.preheader

.lr.ph.preheader:                                 ; preds = %.preheader
  %.276 = getelementptr inbounds nuw i8, ptr %0, i64 16
  br label %.lr.ph

9:                                                ; preds = %3
  %10 = getelementptr inbounds i8, ptr %5, i64 -64
  br label %11

11:                                               ; preds = %11, %9
  %.066 = phi ptr [ %2, %9 ], [ %.167, %11 ]
  %.065 = phi ptr [ %0, %9 ], [ %.1, %11 ]
  tail call void asm sideeffect "", "r,~{dirflag},~{fpsr},~{flags}"(ptr %.065) #24, !srcloc !206
  %12 = load <16 x i8>, ptr %.066, align 1, !tbaa !4
  %13 = shufflevector <16 x i8> %12, <16 x i8> <i8 0, i8 0, i8 0, i8 0, i8 0, i8 0, i8 0, i8 0, i8 poison, i8 poison, i8 poison, i8 poison, i8 poison, i8 poison, i8 poison, i8 poison>, <16 x i32> <i32 0, i32 16, i32 1, i32 17, i32 2, i32 18, i32 3, i32 19, i32 4, i32 20, i32 5, i32 21, i32 6, i32 22, i32 7, i32 23>
  %14 = shufflevector <16 x i8> %12, <16 x i8> <i8 poison, i8 poison, i8 poison, i8 poison, i8 poison, i8 poison, i8 poison, i8 poison, i8 0, i8 0, i8 0, i8 0, i8 0, i8 0, i8 0, i8 0>, <16 x i32> <i32 8, i32 24, i32 9, i32 25, i32 10, i32 26, i32 11, i32 27, i32 12, i32 28, i32 13, i32 29, i32 14, i32 30, i32 15, i32 31>
  %15 = bitcast <16 x i8> %13 to <8 x i16>
  %16 = shufflevector <8 x i16> %15, <8 x i16> <i16 0, i16 0, i16 0, i16 0, i16 poison, i16 poison, i16 poison, i16 poison>, <8 x i32> <i32 0, i32 8, i32 1, i32 9, i32 2, i32 10, i32 3, i32 11>
  %17 = shufflevector <8 x i16> %15, <8 x i16> <i16 poison, i16 poison, i16 poison, i16 poison, i16 0, i16 0, i16 0, i16 0>, <8 x i32> <i32 4, i32 12, i32 5, i32 13, i32 6, i32 14, i32 7, i32 15>
  %18 = bitcast <16 x i8> %14 to <8 x i16>
  %19 = shufflevector <8 x i16> %18, <8 x i16> <i16 0, i16 0, i16 0, i16 0, i16 poison, i16 poison, i16 poison, i16 poison>, <8 x i32> <i32 0, i32 8, i32 1, i32 9, i32 2, i32 10, i32 3, i32 11>
  %20 = shufflevector <8 x i16> %18, <8 x i16> <i16 poison, i16 poison, i16 poison, i16 poison, i16 0, i16 0, i16 0, i16 0>, <8 x i32> <i32 4, i32 12, i32 5, i32 13, i32 6, i32 14, i32 7, i32 15>
  %21 = bitcast <8 x i16> %16 to <4 x i32>
  %22 = uitofp nneg <4 x i32> %21 to <4 x float>
  %23 = bitcast <8 x i16> %17 to <4 x i32>
  %24 = uitofp nneg <4 x i32> %23 to <4 x float>
  %25 = bitcast <8 x i16> %19 to <4 x i32>
  %26 = uitofp nneg <4 x i32> %25 to <4 x float>
  %27 = bitcast <8 x i16> %20 to <4 x i32>
  %28 = uitofp nneg <4 x i32> %27 to <4 x float>
  %29 = fmul <4 x float> %22, splat (float 0x3F70101020000000)
  %30 = fmul <4 x float> %24, splat (float 0x3F70101020000000)
  %31 = fmul <4 x float> %26, splat (float 0x3F70101020000000)
  %32 = fmul <4 x float> %28, splat (float 0x3F70101020000000)
  %33 = shufflevector <4 x float> %29, <4 x float> poison, <4 x i32> <i32 2, i32 1, i32 0, i32 3>
  %34 = shufflevector <4 x float> %30, <4 x float> poison, <4 x i32> <i32 2, i32 1, i32 0, i32 3>
  %35 = shufflevector <4 x float> %31, <4 x float> poison, <4 x i32> <i32 2, i32 1, i32 0, i32 3>
  %36 = shufflevector <4 x float> %32, <4 x float> poison, <4 x i32> <i32 2, i32 1, i32 0, i32 3>
  store <4 x float> %33, ptr %.065, align 1, !tbaa !4
  %37 = getelementptr inbounds nuw i8, ptr %.065, i64 16
  store <4 x float> %34, ptr %37, align 1, !tbaa !4
  %38 = getelementptr inbounds nuw i8, ptr %.065, i64 32
  store <4 x float> %35, ptr %38, align 1, !tbaa !4
  %39 = getelementptr inbounds nuw i8, ptr %.065, i64 48
  store <4 x float> %36, ptr %39, align 1, !tbaa !4
  %40 = getelementptr inbounds nuw i8, ptr %.065, i64 64
  %41 = getelementptr inbounds nuw i8, ptr %.066, i64 16
  %.not72 = icmp ugt ptr %40, %10
  %42 = icmp eq ptr %40, %5
  %. = select i1 %42, ptr %41, ptr %7
  %.73 = select i1 %42, ptr %40, ptr %10
  %.167 = select i1 %.not72, ptr %., ptr %41
  %.1 = select i1 %.not72, ptr %.73, ptr %40
  br i1 %42, label %.loopexit, label %11

.lr.ph:                                           ; preds = %.lr.ph.preheader, %.lr.ph
  %.280 = phi ptr [ %.2, %.lr.ph ], [ %.276, %.lr.ph.preheader ]
  %.pn79 = phi ptr [ %.280, %.lr.ph ], [ %0, %.lr.ph.preheader ]
  %.26878 = phi ptr [ %61, %.lr.ph ], [ %2, %.lr.ph.preheader ]
  tail call void asm sideeffect "", "r,~{dirflag},~{fpsr},~{flags}"(ptr nonnull %.280) #24, !srcloc !207
  %43 = getelementptr inbounds nuw i8, ptr %.26878, i64 2
  %44 = load i8, ptr %43, align 1, !tbaa !4
  %45 = uitofp i8 %44 to float
  %46 = fmul float %45, 0x3F70101020000000
  store float %46, ptr %.pn79, align 4, !tbaa !50
  %47 = getelementptr inbounds nuw i8, ptr %.26878, i64 1
  %48 = load i8, ptr %47, align 1, !tbaa !4
  %49 = uitofp i8 %48 to float
  %50 = fmul float %49, 0x3F70101020000000
  %51 = getelementptr inbounds nuw i8, ptr %.pn79, i64 4
  store float %50, ptr %51, align 4, !tbaa !50
  %52 = load i8, ptr %.26878, align 1, !tbaa !4
  %53 = uitofp i8 %52 to float
  %54 = fmul float %53, 0x3F70101020000000
  %55 = getelementptr inbounds nuw i8, ptr %.pn79, i64 8
  store float %54, ptr %55, align 4, !tbaa !50
  %56 = getelementptr inbounds nuw i8, ptr %.26878, i64 3
  %57 = load i8, ptr %56, align 1, !tbaa !4
  %58 = uitofp i8 %57 to float
  %59 = fmul float %58, 0x3F70101020000000
  %60 = getelementptr inbounds nuw i8, ptr %.pn79, i64 12
  store float %59, ptr %60, align 4, !tbaa !50
  %61 = getelementptr inbounds nuw i8, ptr %.26878, i64 4
  %.2 = getelementptr inbounds nuw i8, ptr %.280, i64 16
  %.not = icmp ugt ptr %.2, %5
  br i1 %.not, label %.loopexit, label %.lr.ph, !llvm.loop !208

.loopexit:                                        ; preds = %.lr.ph, %11, %.preheader
  ret void
}